target datalayout = "e-m:e-p270:32:32-p271:32:32-p272:64:64-i64:64-i128:128-f80:128-n8:16:32:64-S128"
target triple = "x86_64-pc-linux-gnu"

; Function Attrs: nounwind uwtable
define i32 @pmix_argv_append(ptr noundef nonnull %0, ptr noundef %1, ptr noundef nonnull %2) #0 {
  %4 = alloca i32, align 4
  %5 = alloca ptr, align 8
  %6 = alloca ptr, align 8
  %7 = alloca ptr, align 8
  %8 = alloca i32, align 4
  %9 = alloca i32, align 4
  store ptr %0, ptr %5, align 8, !tbaa !3
  store ptr %1, ptr %6, align 8, !tbaa !8
  store ptr %2, ptr %7, align 8, !tbaa !10
  call void @llvm.lifetime.start.p0(i64 4, ptr %8) #7
  %10 = load ptr, ptr %6, align 8, !tbaa !8
  %11 = load ptr, ptr %7, align 8, !tbaa !10
  %12 = call i32 @PMIx_Argv_append_nosize(ptr noundef %10, ptr noundef %11)
  store i32 %12, ptr %8, align 4, !tbaa !12
  %13 = icmp ne i32 0, %12
  br i1 %13, label %14, label %16

14:                                               ; preds = %3
  %15 = load i32, ptr %8, align 4, !tbaa !12
  store i32 %15, ptr %4, align 4
  store i32 1, ptr %9, align 4
  br label %21

16:                                               ; preds = %3
  %17 = load ptr, ptr %6, align 8, !tbaa !8
  %18 = load ptr, ptr %17, align 8, !tbaa !14
  %19 = call i32 @PMIx_Argv_count(ptr noundef %18)
  %20 = load ptr, ptr %5, align 8, !tbaa !3
  store i32 %19, ptr %20, align 4, !tbaa !12
  store i32 0, ptr %4, align 4
  store i32 1, ptr %9, align 4
  br label %21

21:                                               ; preds = %16, %14
  call void @llvm.lifetime.end.p0(i64 4, ptr %8) #7
  %22 = load i32, ptr %4, align 4
  ret i32 %22
}

; Function Attrs: nounwind uwtable
define i32 @pmix_argv_insert_element(ptr noundef %0, i32 noundef %1, ptr noundef %2) #0 {
  %4 = alloca i32, align 4
  %5 = alloca ptr, align 8
  %6 = alloca i32, align 4
  %7 = alloca ptr, align 8
  %8 = alloca i32, align 4
  %9 = alloca i32, align 4
  %10 = alloca i32, align 4
  %11 = alloca i32, align 4
  store ptr %0, ptr %5, align 8, !tbaa !8
  store i32 %1, ptr %6, align 4, !tbaa !12
  store ptr %2, ptr %7, align 8, !tbaa !10
  call void @llvm.lifetime.start.p0(i64 4, ptr %8) #7
  call void @llvm.lifetime.start.p0(i64 4, ptr %9) #7
  call void @llvm.lifetime.start.p0(i64 4, ptr %10) #7
  %12 = load ptr, ptr %5, align 8, !tbaa !8
  %13 = icmp eq ptr null, %12
  br i1 %13, label %21, label %14

14:                                               ; preds = %3
  %15 = load ptr, ptr %5, align 8, !tbaa !8
  %16 = load ptr, ptr %15, align 8, !tbaa !14
  %17 = icmp eq ptr null, %16
  br i1 %17, label %21, label %18

18:                                               ; preds = %14
  %19 = load i32, ptr %6, align 4, !tbaa !12
  %20 = icmp slt i32 %19, 0
  br i1 %20, label %21, label %22

21:                                               ; preds = %18, %14, %3
  store i32 -27, ptr %4, align 4
  store i32 1, ptr %11, align 4
  br label %91

22:                                               ; preds = %18
  %23 = load ptr, ptr %7, align 8, !tbaa !10
  %24 = icmp eq ptr null, %23
  br i1 %24, label %25, label %26

25:                                               ; preds = %22
  store i32 0, ptr %4, align 4
  store i32 1, ptr %11, align 4
  br label %91

26:                                               ; preds = %22
  br label %27

27:                                               ; preds = %26
  %28 = load ptr, ptr %5, align 8, !tbaa !8
  %29 = load ptr, ptr %28, align 8, !tbaa !14
  %30 = call i32 @PMIx_Argv_count(ptr noundef %29)
  store i32 %30, ptr %9, align 4, !tbaa !12
  %31 = load i32, ptr %6, align 4, !tbaa !12
  %32 = load i32, ptr %9, align 4, !tbaa !12
  %33 = icmp sgt i32 %31, %32
  br i1 %33, label %34, label %38

34:                                               ; preds = %27
  %35 = load ptr, ptr %5, align 8, !tbaa !8
  %36 = load ptr, ptr %7, align 8, !tbaa !10
  %37 = call i32 @pmix_argv_append(ptr noundef %9, ptr noundef %35, ptr noundef %36)
  store i32 0, ptr %4, align 4
  store i32 1, ptr %11, align 4
  br label %91

38:                                               ; preds = %27
  %39 = load ptr, ptr %5, align 8, !tbaa !8
  %40 = load ptr, ptr %39, align 8, !tbaa !14
  %41 = load i32, ptr %9, align 4, !tbaa !12
  %42 = add nsw i32 %41, 2
  %43 = sext i32 %42 to i64
  %44 = mul i64 8, %43
  %45 = call ptr @realloc(ptr noundef %40, i64 noundef %44) #10
  %46 = load ptr, ptr %5, align 8, !tbaa !8
  store ptr %45, ptr %46, align 8, !tbaa !14
  %47 = load i32, ptr %9, align 4, !tbaa !12
  %48 = load i32, ptr %6, align 4, !tbaa !12
  %49 = sub nsw i32 %47, %48
  store i32 %49, ptr %10, align 4, !tbaa !12
  %50 = load i32, ptr %10, align 4, !tbaa !12
  %51 = sub nsw i32 %50, 1
  store i32 %51, ptr %8, align 4, !tbaa !12
  br label %52

52:                                               ; preds = %72, %38
  %53 = load i32, ptr %8, align 4, !tbaa !12
  %54 = icmp sge i32 %53, 0
  br i1 %54, label %55, label %75

55:                                               ; preds = %52
  %56 = load ptr, ptr %5, align 8, !tbaa !8
  %57 = load ptr, ptr %56, align 8, !tbaa !14
  %58 = load i32, ptr %6, align 4, !tbaa !12
  %59 = load i32, ptr %8, align 4, !tbaa !12
  %60 = add nsw i32 %58, %59
  %61 = sext i32 %60 to i64
  %62 = getelementptr inbounds ptr, ptr %57, i64 %61
  %63 = load ptr, ptr %62, align 8, !tbaa !10
  %64 = load ptr, ptr %5, align 8, !tbaa !8
  %65 = load ptr, ptr %64, align 8, !tbaa !14
  %66 = load i32, ptr %6, align 4, !tbaa !12
  %67 = add nsw i32 %66, 1
  %68 = load i32, ptr %8, align 4, !tbaa !12
  %69 = add nsw i32 %67, %68
  %70 = sext i32 %69 to i64
  %71 = getelementptr inbounds ptr, ptr %65, i64 %70
  store ptr %63, ptr %71, align 8, !tbaa !10
  br label %72

72:                                               ; preds = %55
  %73 = load i32, ptr %8, align 4, !tbaa !12
  %74 = add nsw i32 %73, -1
  store i32 %74, ptr %8, align 4, !tbaa !12
  br label %52, !llvm.loop !34

75:                                               ; preds = %52
  %76 = load ptr, ptr %5, align 8, !tbaa !8
  %77 = load ptr, ptr %76, align 8, !tbaa !14
  %78 = load i32, ptr %6, align 4, !tbaa !12
  %79 = load i32, ptr %10, align 4, !tbaa !12
  %80 = add nsw i32 %78, %79
  %81 = add nsw i32 %80, 1
  %82 = sext i32 %81 to i64
  %83 = getelementptr inbounds ptr, ptr %77, i64 %82
  store ptr null, ptr %83, align 8, !tbaa !10
  %84 = load ptr, ptr %7, align 8, !tbaa !10
  %85 = call noalias ptr @strdup(ptr noundef %84) #7
  %86 = load ptr, ptr %5, align 8, !tbaa !8
  %87 = load ptr, ptr %86, align 8, !tbaa !14
  %88 = load i32, ptr %6, align 4, !tbaa !12
  %89 = sext i32 %88 to i64
  %90 = getelementptr inbounds ptr, ptr %87, i64 %89
  store ptr %85, ptr %90, align 8, !tbaa !10
  store i32 0, ptr %4, align 4
  store i32 1, ptr %11, align 4
  br label %91

91:                                               ; preds = %75, %34, %25, %21
  call void @llvm.lifetime.end.p0(i64 4, ptr %10) #7
  call void @llvm.lifetime.end.p0(i64 4, ptr %9) #7
  call void @llvm.lifetime.end.p0(i64 4, ptr %8) #7
  %92 = load i32, ptr %4, align 4
  ret i32 %92
}