; Function Attrs: nounwind uwtable
define range(i32 -27, 1) i32 @pmix_argv_insert_element(ptr noundef %0, i32 noundef %1, ptr noundef %2) local_unnamed_addr #0 {
  %4 = icmp eq ptr %0, null
  br i1 %4, label %pmix_argv_append.exit, label %5

5:                                                ; preds = %3
  %6 = load ptr, ptr %0, align 8, !tbaa !3
  %7 = icmp eq ptr %6, null
  %8 = icmp slt i32 %1, 0
  %or.cond = or i1 %8, %7
  br i1 %or.cond, label %pmix_argv_append.exit, label %9

9:                                                ; preds = %5
  %10 = icmp eq ptr %2, null
  br i1 %10, label %pmix_argv_append.exit, label %11

11:                                               ; preds = %9
  %12 = tail call i32 @PMIx_Argv_count(ptr noundef nonnull %6) #10
  %13 = icmp sgt i32 %1, %12
  br i1 %13, label %14, label %19

14:                                               ; preds = %11
  %15 = tail call i32 @PMIx_Argv_append_nosize(ptr noundef nonnull %0, ptr noundef nonnull %2) #10
  %.not.i = icmp eq i32 %15, 0
  br i1 %.not.i, label %16, label %pmix_argv_append.exit

16:                                               ; preds = %14
  %17 = load ptr, ptr %0, align 8, !tbaa !3
  %18 = tail call i32 @PMIx_Argv_count(ptr noundef %17) #10
  br label %pmix_argv_append.exit

19:                                               ; preds = %11
  %20 = load ptr, ptr %0, align 8, !tbaa !3
  %21 = add nuw nsw i32 %12, 2
  %22 = zext nneg i32 %21 to i64
  %23 = shl nuw nsw i64 %22, 3
  %24 = tail call ptr @realloc(ptr noundef %20, i64 noundef %23) #13
  store ptr %24, ptr %0, align 8, !tbaa !3
  %25 = xor i32 %1, -1
  %26 = add nsw i32 %12, %25
  %27 = icmp sgt i32 %26, -1
  br i1 %27, label %.lr.ph, label %.._crit_edge_crit_edge

.._crit_edge_crit_edge:                           ; preds = %19
  %.pre = zext nneg i32 %1 to i64
  br label %._crit_edge

.lr.ph:                                           ; preds = %19
  %28 = zext nneg i32 %26 to i64
  %29 = zext nneg i32 %1 to i64
  %invariant.gep = getelementptr ptr, ptr %24, i64 %29
  %30 = zext nneg i32 %1 to i64
  %invariant.gep35 = getelementptr ptr, ptr %24, i64 %30
  %invariant.gep37 = getelementptr i8, ptr %invariant.gep35, i64 8
  br label %31

31:                                               ; preds = %.lr.ph, %31
  %indvars.iv = phi i64 [ %28, %.lr.ph ], [ %indvars.iv.next, %31 ]
  %gep = getelementptr ptr, ptr %invariant.gep, i64 %indvars.iv
  %32 = load ptr, ptr %gep, align 8, !tbaa !10
  %gep38 = getelementptr ptr, ptr %invariant.gep37, i64 %indvars.iv
  store ptr %32, ptr %gep38, align 8, !tbaa !10
  %indvars.iv.next = add nsw i64 %indvars.iv, -1
  %.not = icmp eq i64 %indvars.iv, 0
  br i1 %.not, label %._crit_edge, label %31, !llvm.loop !24

._crit_edge:                                      ; preds = %31, %.._crit_edge_crit_edge
  %.pre-phi = phi i64 [ %.pre, %.._crit_edge_crit_edge ], [ %29, %31 ]
  %33 = sext i32 %12 to i64
  %34 = getelementptr ptr, ptr %24, i64 %33
  %35 = getelementptr i8, ptr %34, i64 8
  store ptr null, ptr %35, align 8, !tbaa !10
  %36 = tail call noalias ptr @strdup(ptr noundef nonnull %2) #10
  %37 = getelementptr inbounds nuw ptr, ptr %24, i64 %.pre-phi
  store ptr %36, ptr %37, align 8, !tbaa !10
  br label %pmix_argv_append.exit

pmix_argv_append.exit:                            ; preds = %16, %14, %9, %3, %5, %._crit_edge
  %.0 = phi i32 [ 0, %._crit_edge ], [ -27, %5 ], [ -27, %3 ], [ 0, %9 ], [ 0, %14 ], [ 0, %16 ]
  ret i32 %.0
}